; Function Attrs: inlinehint mustprogress nounwind uwtable
define internal fastcc void @"_ZZN14pybind11_tests16test_cpp_conduitL33pybind11_init_exo_planet_pybind11ERN8pybind117module_EEN3$_0D2Ev"(ptr %.0.val) unnamed_addr #0 align 2 personality ptr @__gxx_personality_v0 {
  %.not.i.i.i = icmp eq ptr %.0.val, null
  br i1 %.not.i.i.i, label %_ZN8pybind116objectD2Ev.exit, label %1

1:                                                ; preds = %0
  %2 = load i64, ptr %.0.val, align 8, !tbaa !81
  %3 = add nsw i64 %2, -1
  store i64 %3, ptr %.0.val, align 8, !tbaa !81
  %.not.i.i.i.i = icmp eq i64 %3, 0
  br i1 %.not.i.i.i.i, label %4, label %_ZN8pybind116objectD2Ev.exit

4:                                                ; preds = %1
  invoke void @_Py_Dealloc(ptr noundef nonnull %.0.val)
          to label %_ZN8pybind116objectD2Ev.exit unwind label %5

5:                                                ; preds = %4
  %6 = landingpad { ptr, i32 }
          catch ptr null
  %7 = extractvalue { ptr, i32 } %6, 0
  tail call void @__clang_call_terminate(ptr %7) #29
  unreachable

_ZN8pybind116objectD2Ev.exit:                     ; preds = %0, %1, %4
  ret void
}